; Function Attrs: nounwind uwtable
define ptr @l_Lean_Compiler_LCNF_withNewScope___rarg___boxed(ptr noundef %0, ptr noundef %1, ptr noundef %2) #0 {
  %4 = getelementptr inbounds nuw i8, ptr %0, i64 16
  %5 = load ptr, ptr %4, align 8, !tbaa !9
  %6 = ptrtoint ptr %5 to i64
  %7 = and i64 %6, 1
  %.not.i5 = icmp eq i64 %7, 0
  br i1 %.not.i5, label %8, label %lean_inc.exit.i

8:                                                ; preds = %3
  %.val.i.i = load i32, ptr %5, align 4, !tbaa !4
  %9 = icmp sgt i32 %.val.i.i, 0
  br i1 %9, label %10, label %12, !prof !13

10:                                               ; preds = %8
  %11 = add nuw i32 %.val.i.i, 1
  store i32 %11, ptr %5, align 4, !tbaa !4
  br label %lean_inc.exit.i

12:                                               ; preds = %8
  %.not.i7.i = icmp eq i32 %.val.i.i, 0
  br i1 %.not.i7.i, label %lean_inc.exit.i, label %13

13:                                               ; preds = %12
  tail call void @lean_inc_ref_cold(ptr noundef nonnull %5) #4
  br label %lean_inc.exit.i

lean_inc.exit.i:                                  ; preds = %13, %12, %10, %3
  %14 = ptrtoint ptr %0 to i64
  %15 = and i64 %14, 1
  %.not8.i = icmp eq i64 %15, 0
  br i1 %.not8.i, label %16, label %l_Lean_Compiler_LCNF_withNewScope___rarg.exit

16:                                               ; preds = %lean_inc.exit.i
  %17 = load i32, ptr %0, align 4, !tbaa !4
  %18 = icmp sgt i32 %17, 1
  br i1 %18, label %19, label %21, !prof !13

19:                                               ; preds = %16
  %20 = add nsw i32 %17, -1
  store i32 %20, ptr %0, align 4, !tbaa !4
  br label %l_Lean_Compiler_LCNF_withNewScope___rarg.exit

21:                                               ; preds = %16
  %.not.i.i = icmp eq i32 %17, 0
  br i1 %.not.i.i, label %l_Lean_Compiler_LCNF_withNewScope___rarg.exit, label %22

22:                                               ; preds = %21
  tail call void @lean_dec_ref_cold(ptr noundef nonnull %0) #4
  br label %l_Lean_Compiler_LCNF_withNewScope___rarg.exit

l_Lean_Compiler_LCNF_withNewScope___rarg.exit:    ; preds = %lean_inc.exit.i, %19, %21, %22
  %23 = load ptr, ptr @l_Lean_Compiler_LCNF_withNewScope___rarg___closed__1, align 8, !tbaa !9
  %24 = tail call ptr @lean_apply_3(ptr noundef %5, ptr noundef nonnull inttoptr (i64 1 to ptr), ptr noundef %23, ptr noundef %2) #4
  %25 = ptrtoint ptr %1 to i64
  %26 = and i64 %25, 1
  %.not = icmp eq i64 %26, 0
  br i1 %.not, label %27, label %lean_dec.exit

27:                                               ; preds = %l_Lean_Compiler_LCNF_withNewScope___rarg.exit
  %28 = load i32, ptr %1, align 4, !tbaa !4
  %29 = icmp sgt i32 %28, 1
  br i1 %29, label %30, label %32, !prof !13

30:                                               ; preds = %27
  %31 = add nsw i32 %28, -1
  store i32 %31, ptr %1, align 4, !tbaa !4
  br label %lean_dec.exit

32:                                               ; preds = %27
  %.not.i = icmp eq i32 %28, 0
  br i1 %.not.i, label %lean_dec.exit, label %33

33:                                               ; preds = %32
  tail call void @lean_dec_ref_cold(ptr noundef nonnull %1) #4
  br label %lean_dec.exit

lean_dec.exit:                                    ; preds = %33, %32, %30, %l_Lean_Compiler_LCNF_withNewScope___rarg.exit
  ret ptr %24
}